target datalayout = "e-m:e-p270:32:32-p271:32:32-p272:64:64-i64:64-i128:128-f80:128-n8:16:32:64-S128"
target triple = "x86_64-pc-linux-gnu"

%struct.pmix_list_t = type { %struct.pmix_object_t, %struct.pmix_list_item_t, i64 }
%struct.pmix_object_t = type { %union.pthread_mutex_t, ptr, i32, %struct.pmix_tma }
%union.pthread_mutex_t = type { %struct.__pthread_mutex_s }
%struct.__pthread_mutex_s = type { i32, i32, i32, i32, i32, i16, i16, %struct.__pthread_internal_list }
%struct.__pthread_internal_list = type { ptr, ptr }
%struct.pmix_tma = type { ptr, ptr, ptr, ptr, ptr, ptr, ptr, ptr }
%struct.pmix_list_item_t = type { %struct.pmix_object_t, ptr, ptr, i32 }
%struct.prte_rml_base_t = type { i32, i32, i32, i32, %struct.pmix_list_t, %struct.pmix_list_t, i32, %struct.pmix_list_t, i32, i8 }
%struct.pmix_output_desc_t = type { i8, i8, i32, i8, i32, ptr, ptr, i32, ptr, i32, i8, i8, i8, i8, ptr, i32, i32 }
%struct.pmix_proc = type { [256 x i8], i32 }
%struct.pmix_mca_base_framework_t = type { ptr, ptr, ptr, ptr, ptr, ptr, i32, i32, ptr, ptr, i32, i32, %struct.pmix_list_t, %struct.pmix_list_t }
%struct.prte_process_info_t = type { %struct.pmix_proc, %struct.pmix_proc, ptr, %struct.pmix_proc, i32, i32, i32, ptr, ptr, i32, i8, ptr, i16, ptr, ptr, i8, ptr, i8 }
%struct.prte_grpcomm_coll_t = type { %struct.pmix_list_item_t, ptr, i32, %struct.pmix_data_buffer, ptr, i64, i64, i64, i64, i8, i32, i64, %struct.pmix_list_t, %struct.pmix_bitmap_t, ptr, ptr, ptr }
%struct.pmix_data_buffer = type { ptr, ptr, ptr, i64, i64 }
%struct.pmix_bitmap_t = type { %struct.pmix_object_t, ptr, i32, i32 }
%struct.prte_pmix_mdx_caddy_t = type { %struct.pmix_object_t, %struct.event, ptr, i32, ptr, ptr, %struct.pmix_byte_object, ptr, i64, ptr, i64, ptr, ptr, ptr, ptr, ptr, ptr }
%struct.event = type { %struct.event_callback, %union.anon.1, i32, ptr, %union.anon.3, i16, i16, %struct.timeval }
%struct.event_callback = type { %struct.anon, i16, i8, i8, %union.anon.0, ptr }
%struct.anon = type { ptr, ptr }
%union.anon.0 = type { ptr }
%union.anon.1 = type { %struct.anon.2 }
%struct.anon.2 = type { ptr, ptr }
%union.anon.3 = type { %struct.anon.4 }
%struct.anon.4 = type { %struct.anon.5, %struct.timeval }
%struct.anon.5 = type { ptr, ptr }
%struct.timeval = type { i64, i64 }
%struct.pmix_byte_object = type { ptr, i64 }
%struct.prte_grpcomm_signature_t = type { %struct.pmix_object_t, ptr, i64, i8, ptr, i64, ptr, i64, i64, ptr, i64 }

@prte_rml_base = external global %struct.prte_rml_base_t, align 8
@pmix_output_info = external global [0 x %struct.pmix_output_desc_t], align 8
@.str.1 = private unnamed_addr constant [17 x i8] c"grpcomm_direct.c\00", align 1
@prte_grpcomm_base_framework = external global %struct.pmix_mca_base_framework_t, align 8
@prte_process_info = external global %struct.prte_process_info_t, align 8
@.str.3 = private unnamed_addr constant [37 x i8] c"PMIX ERROR: %s in file %s at line %d\00", align 1
@.str.8 = private unnamed_addr constant [37 x i8] c"PRTE ERROR: %s in file %s at line %d\00", align 1
@.str.11 = private unnamed_addr constant [26 x i8] c"RML-SEND(%s:%d): %s:%s:%d\00", align 1
@.str.26 = private unnamed_addr constant [29 x i8] c"%s grpcomm:direct: allgather\00", align 1
@__func__.allgather = private unnamed_addr constant [10 x i8] c"allgather\00", align 1
@.str.27 = private unnamed_addr constant [47 x i8] c"%s grpcomm:direct:allgather sending to ourself\00", align 1

; Function Attrs: nounwind uwtable
define internal i32 @allgather(ptr noundef %0, ptr noundef %1) #0 {
  %3 = alloca i32, align 4
  %4 = alloca ptr, align 8
  %5 = alloca ptr, align 8
  %6 = alloca i32, align 4
  %7 = alloca ptr, align 8
  %8 = alloca i32, align 4
  store ptr %0, ptr %4, align 8, !tbaa !41
  store ptr %1, ptr %5, align 8, !tbaa !41
  call void @llvm.lifetime.start.p0(i64 4, ptr %6) #10
  call void @llvm.lifetime.start.p0(i64 8, ptr %7) #10
  %9 = load i32, ptr getelementptr inbounds nuw (%struct.pmix_mca_base_framework_t, ptr @prte_grpcomm_base_framework, i32 0, i32 11), align 4, !tbaa !42
  %10 = icmp sge i32 %9, 0
  br i1 %10, label %11, label %24

11:                                               ; preds = %2
  %12 = load i32, ptr getelementptr inbounds nuw (%struct.pmix_mca_base_framework_t, ptr @prte_grpcomm_base_framework, i32 0, i32 11), align 4, !tbaa !42
  %13 = icmp slt i32 %12, 64
  br i1 %13, label %14, label %24

14:                                               ; preds = %11
  %15 = load i32, ptr getelementptr inbounds nuw (%struct.pmix_mca_base_framework_t, ptr @prte_grpcomm_base_framework, i32 0, i32 11), align 4, !tbaa !42
  %16 = sext i32 %15 to i64
  %17 = getelementptr inbounds [0 x %struct.pmix_output_desc_t], ptr @pmix_output_info, i64 0, i64 %16
  %18 = getelementptr inbounds nuw %struct.pmix_output_desc_t, ptr %17, i32 0, i32 2
  %19 = load i32, ptr %18, align 4, !tbaa !23
  %20 = icmp sge i32 %19, 1
  br i1 %20, label %21, label %24

21:                                               ; preds = %14
  %22 = load i32, ptr getelementptr inbounds nuw (%struct.pmix_mca_base_framework_t, ptr @prte_grpcomm_base_framework, i32 0, i32 11), align 4, !tbaa !42
  %23 = call ptr @prte_util_print_name_args(ptr noundef @prte_process_info)
  call void (i32, ptr, ...) @pmix_output(i32 noundef %22, ptr noundef @.str.26, ptr noundef %23)
  br label %24

24:                                               ; preds = %21, %14, %11, %2
  %25 = call ptr @PMIx_Data_buffer_create()
  store ptr %25, ptr %7, align 8, !tbaa !34
  %26 = load ptr, ptr %7, align 8, !tbaa !34
  %27 = load ptr, ptr %4, align 8, !tbaa !41
  %28 = getelementptr inbounds nuw %struct.prte_grpcomm_coll_t, ptr %27, i32 0, i32 1
  %29 = load ptr, ptr %28, align 8, !tbaa !45
  %30 = call i32 @prte_grpcomm_sig_pack(ptr noundef %26, ptr noundef %29)
  store i32 %30, ptr %6, align 4, !tbaa !3
  %31 = load i32, ptr %6, align 4, !tbaa !3
  %32 = icmp ne i32 0, %31
  br i1 %32, label %33, label %48

33:                                               ; preds = %24
  br label %34

34:                                               ; preds = %33
  %35 = load i32, ptr %6, align 4, !tbaa !3
  %36 = icmp ne i32 -43, %35
  br i1 %36, label %37, label %40

37:                                               ; preds = %34
  %38 = load i32, ptr %6, align 4, !tbaa !3
  %39 = call ptr @prte_strerror(i32 noundef %38)
  call void (i32, ptr, ...) @pmix_output(i32 noundef 0, ptr noundef @.str.8, ptr noundef %39, ptr noundef @.str.1, i32 noundef 127)
  br label %40

40:                                               ; preds = %37, %34
  br label %41

41:                                               ; preds = %40
  br label %42

42:                                               ; preds = %41
  br label %43

43:                                               ; preds = %42
  %44 = load ptr, ptr %7, align 8, !tbaa !34
  call void @PMIx_Data_buffer_release(ptr noundef %44)
  store ptr null, ptr %7, align 8, !tbaa !34
  br label %45

45:                                               ; preds = %43
  br label %46

46:                                               ; preds = %45
  %47 = load i32, ptr %6, align 4, !tbaa !3
  store i32 %47, ptr %3, align 4
  store i32 1, ptr %8, align 4
  br label %168

48:                                               ; preds = %24
  %49 = load ptr, ptr %7, align 8, !tbaa !34
  %50 = load ptr, ptr %5, align 8, !tbaa !41
  %51 = getelementptr inbounds nuw %struct.prte_pmix_mdx_caddy_t, ptr %50, i32 0, i32 6
  %52 = call i32 @PMIx_Data_pack(ptr noundef null, ptr noundef %49, ptr noundef %51, i32 noundef 1, i16 noundef zeroext 27)
  store i32 %52, ptr %6, align 4, !tbaa !3
  %53 = load i32, ptr %6, align 4, !tbaa !3
  %54 = icmp ne i32 0, %53
  br i1 %54, label %55, label %71

55:                                               ; preds = %48
  br label %56

56:                                               ; preds = %55
  %57 = load i32, ptr %6, align 4, !tbaa !3
  %58 = icmp ne i32 -2, %57
  br i1 %58, label %59, label %62

59:                                               ; preds = %56
  %60 = load i32, ptr %6, align 4, !tbaa !3
  %61 = call ptr @PMIx_Error_string(i32 noundef %60)
  call void (i32, ptr, ...) @pmix_output(i32 noundef 0, ptr noundef @.str.3, ptr noundef %61, ptr noundef @.str.1, i32 noundef 135)
  br label %62

62:                                               ; preds = %59, %56
  br label %63

63:                                               ; preds = %62
  br label %64

64:                                               ; preds = %63
  br label %65

65:                                               ; preds = %64
  %66 = load ptr, ptr %7, align 8, !tbaa !34
  call void @PMIx_Data_buffer_release(ptr noundef %66)
  store ptr null, ptr %7, align 8, !tbaa !34
  br label %67

67:                                               ; preds = %65
  br label %68

68:                                               ; preds = %67
  %69 = load i32, ptr %6, align 4, !tbaa !3
  %70 = call i32 @prte_pmix_convert_status(i32 noundef %69)
  store i32 %70, ptr %3, align 4
  store i32 1, ptr %8, align 4
  br label %168

71:                                               ; preds = %48
  %72 = load ptr, ptr %7, align 8, !tbaa !34
  %73 = load ptr, ptr %5, align 8, !tbaa !41
  %74 = getelementptr inbounds nuw %struct.prte_pmix_mdx_caddy_t, ptr %73, i32 0, i32 5
  %75 = load ptr, ptr %74, align 8, !tbaa !51
  %76 = call i32 @PMIx_Data_copy_payload(ptr noundef %72, ptr noundef %75)
  store i32 %76, ptr %6, align 4, !tbaa !3
  %77 = load i32, ptr %6, align 4, !tbaa !3
  %78 = icmp ne i32 0, %77
  br i1 %78, label %79, label %95

79:                                               ; preds = %71
  br label %80

80:                                               ; preds = %79
  %81 = load i32, ptr %6, align 4, !tbaa !3
  %82 = icmp ne i32 -2, %81
  br i1 %82, label %83, label %86

83:                                               ; preds = %80
  %84 = load i32, ptr %6, align 4, !tbaa !3
  %85 = call ptr @PMIx_Error_string(i32 noundef %84)
  call void (i32, ptr, ...) @pmix_output(i32 noundef 0, ptr noundef @.str.3, ptr noundef %85, ptr noundef @.str.1, i32 noundef 143)
  br label %86

86:                                               ; preds = %83, %80
  br label %87

87:                                               ; preds = %86
  br label %88

88:                                               ; preds = %87
  br label %89

89:                                               ; preds = %88
  %90 = load ptr, ptr %7, align 8, !tbaa !34
  call void @PMIx_Data_buffer_release(ptr noundef %90)
  store ptr null, ptr %7, align 8, !tbaa !34
  br label %91

91:                                               ; preds = %89
  br label %92

92:                                               ; preds = %91
  %93 = load i32, ptr %6, align 4, !tbaa !3
  %94 = call i32 @prte_pmix_convert_status(i32 noundef %93)
  store i32 %94, ptr %3, align 4
  store i32 1, ptr %8, align 4
  br label %168

95:                                               ; preds = %71
  %96 = load ptr, ptr %4, align 8, !tbaa !41
  %97 = getelementptr inbounds nuw %struct.prte_grpcomm_coll_t, ptr %96, i32 0, i32 1
  %98 = load ptr, ptr %97, align 8, !tbaa !45
  %99 = getelementptr inbounds nuw %struct.prte_grpcomm_signature_t, ptr %98, i32 0, i32 8
  %100 = load i64, ptr %99, align 8, !tbaa !63
  %101 = icmp ult i64 0, %100
  br i1 %101, label %102, label %127

102:                                              ; preds = %95
  br label %103

103:                                              ; preds = %102
  %104 = load i32, ptr @prte_rml_base, align 8, !tbaa !17
  %105 = icmp sge i32 %104, 0
  br i1 %105, label %106, label %120

106:                                              ; preds = %103
  %107 = load i32, ptr @prte_rml_base, align 8, !tbaa !17
  %108 = icmp slt i32 %107, 64
  br i1 %108, label %109, label %120

109:                                              ; preds = %106
  %110 = load i32, ptr @prte_rml_base, align 8, !tbaa !17
  %111 = sext i32 %110 to i64
  %112 = getelementptr inbounds [0 x %struct.pmix_output_desc_t], ptr @pmix_output_info, i64 0, i64 %111
  %113 = getelementptr inbounds nuw %struct.pmix_output_desc_t, ptr %112, i32 0, i32 2
  %114 = load i32, ptr %113, align 4, !tbaa !23
  %115 = icmp sge i32 %114, 2
  br i1 %115, label %116, label %120

116:                                              ; preds = %109
  %117 = load i32, ptr @prte_rml_base, align 8, !tbaa !17
  %118 = load i32, ptr getelementptr inbounds nuw (%struct.pmix_proc, ptr getelementptr inbounds nuw (%struct.prte_process_info_t, ptr @prte_process_info, i32 0, i32 1), i32 0, i32 1), align 4, !tbaa !36
  %119 = call ptr @pmix_util_print_rank(i32 noundef %118)
  call void (i32, ptr, ...) @pmix_output(i32 noundef %117, ptr noundef @.str.11, ptr noundef %119, i32 noundef 33, ptr noundef @.str.1, ptr noundef @__func__.allgather, i32 noundef 151)
  br label %120

120:                                              ; preds = %116, %109, %106, %103
  %121 = load i32, ptr getelementptr inbounds nuw (%struct.pmix_proc, ptr getelementptr inbounds nuw (%struct.prte_process_info_t, ptr @prte_process_info, i32 0, i32 1), i32 0, i32 1), align 4, !tbaa !36
  %122 = load ptr, ptr %7, align 8, !tbaa !34
  %123 = call i32 @prte_rml_send_buffer_nb(i32 noundef %121, ptr noundef %122, i32 noundef 33)
  store i32 %123, ptr %6, align 4, !tbaa !3
  br label %124

124:                                              ; preds = %120
  br label %125

125:                                              ; preds = %124
  %126 = load i32, ptr %6, align 4, !tbaa !3
  store i32 %126, ptr %3, align 4
  store i32 1, ptr %8, align 4
  br label %168

127:                                              ; preds = %95
  %128 = load i32, ptr getelementptr inbounds nuw (%struct.pmix_mca_base_framework_t, ptr @prte_grpcomm_base_framework, i32 0, i32 11), align 4, !tbaa !42
  %129 = icmp sge i32 %128, 0
  br i1 %129, label %130, label %143

130:                                              ; preds = %127
  %131 = load i32, ptr getelementptr inbounds nuw (%struct.pmix_mca_base_framework_t, ptr @prte_grpcomm_base_framework, i32 0, i32 11), align 4, !tbaa !42
  %132 = icmp slt i32 %131, 64
  br i1 %132, label %133, label %143

133:                                              ; preds = %130
  %134 = load i32, ptr getelementptr inbounds nuw (%struct.pmix_mca_base_framework_t, ptr @prte_grpcomm_base_framework, i32 0, i32 11), align 4, !tbaa !42
  %135 = sext i32 %134 to i64
  %136 = getelementptr inbounds [0 x %struct.pmix_output_desc_t], ptr @pmix_output_info, i64 0, i64 %135
  %137 = getelementptr inbounds nuw %struct.pmix_output_desc_t, ptr %136, i32 0, i32 2
  %138 = load i32, ptr %137, align 4, !tbaa !23
  %139 = icmp sge i32 %138, 1
  br i1 %139, label %140, label %143

140:                                              ; preds = %133
  %141 = load i32, ptr getelementptr inbounds nuw (%struct.pmix_mca_base_framework_t, ptr @prte_grpcomm_base_framework, i32 0, i32 11), align 4, !tbaa !42
  %142 = call ptr @prte_util_print_name_args(ptr noundef @prte_process_info)
  call void (i32, ptr, ...) @pmix_output(i32 noundef %141, ptr noundef @.str.27, ptr noundef %142)
  br label %143

143:                                              ; preds = %140, %133, %130, %127
  br label %144

144:                                              ; preds = %143
  %145 = load i32, ptr @prte_rml_base, align 8, !tbaa !17
  %146 = icmp sge i32 %145, 0
  br i1 %146, label %147, label %161

147:                                              ; preds = %144
  %148 = load i32, ptr @prte_rml_base, align 8, !tbaa !17
  %149 = icmp slt i32 %148, 64
  br i1 %149, label %150, label %161

150:                                              ; preds = %147
  %151 = load i32, ptr @prte_rml_base, align 8, !tbaa !17
  %152 = sext i32 %151 to i64
  %153 = getelementptr inbounds [0 x %struct.pmix_output_desc_t], ptr @pmix_output_info, i64 0, i64 %152
  %154 = getelementptr inbounds nuw %struct.pmix_output_desc_t, ptr %153, i32 0, i32 2
  %155 = load i32, ptr %154, align 4, !tbaa !23
  %156 = icmp sge i32 %155, 2
  br i1 %156, label %157, label %161

157:                                              ; preds = %150
  %158 = load i32, ptr @prte_rml_base, align 8, !tbaa !17
  %159 = load i32, ptr getelementptr inbounds nuw (%struct.pmix_proc, ptr @prte_process_info, i32 0, i32 1), align 8, !tbaa !65
  %160 = call ptr @pmix_util_print_rank(i32 noundef %159)
  call void (i32, ptr, ...) @pmix_output(i32 noundef %158, ptr noundef @.str.11, ptr noundef %160, i32 noundef 33, ptr noundef @.str.1, ptr noundef @__func__.allgather, i32 noundef 162)
  br label %161

161:                                              ; preds = %157, %150, %147, %144
  %162 = load i32, ptr getelementptr inbounds nuw (%struct.pmix_proc, ptr @prte_process_info, i32 0, i32 1), align 8, !tbaa !65
  %163 = load ptr, ptr %7, align 8, !tbaa !34
  %164 = call i32 @prte_rml_send_buffer_nb(i32 noundef %162, ptr noundef %163, i32 noundef 33)
  store i32 %164, ptr %6, align 4, !tbaa !3
  br label %165

165:                                              ; preds = %161
  br label %166

166:                                              ; preds = %165
  %167 = load i32, ptr %6, align 4, !tbaa !3
  store i32 %167, ptr %3, align 4
  store i32 1, ptr %8, align 4
  br label %168

168:                                              ; preds = %166, %125, %92, %68, %46
  call void @llvm.lifetime.end.p0(i64 8, ptr %7) #10
  call void @llvm.lifetime.end.p0(i64 4, ptr %6) #10
  %169 = load i32, ptr %3, align 4
  ret i32 %169
}