; Function Attrs: nounwind uwtable
define internal i32 @allgather(ptr noundef readonly captures(none) %0, ptr noundef %1) #0 {
  %3 = load i32, ptr getelementptr inbounds nuw (i8, ptr @prte_grpcomm_base_framework, i64 76), align 4, !tbaa !42
  %or.cond = icmp ult i32 %3, 64
  br i1 %or.cond, label %4, label %11

4:                                                ; preds = %2
  %5 = zext nneg i32 %3 to i64
  %6 = getelementptr inbounds nuw [0 x %struct.pmix_output_desc_t], ptr @pmix_output_info, i64 0, i64 %5, i32 2
  %7 = load i32, ptr %6, align 4, !tbaa !27
  %8 = icmp sgt i32 %7, 0
  br i1 %8, label %9, label %11

9:                                                ; preds = %4
  %10 = tail call ptr @prte_util_print_name_args(ptr noundef nonnull @prte_process_info) #13
  tail call void (i32, ptr, ...) @pmix_output(i32 noundef %3, ptr noundef nonnull @.str.26, ptr noundef %10) #13
  br label %11

11:                                               ; preds = %9, %4, %2
  %12 = tail call ptr @PMIx_Data_buffer_create() #13
  %13 = getelementptr inbounds nuw i8, ptr %0, i64 144
  %14 = load ptr, ptr %13, align 8, !tbaa !45
  %15 = tail call i32 @prte_grpcomm_sig_pack(ptr noundef %12, ptr noundef %14) #13
  switch i32 %15, label %16 [
    i32 0, label %19
    i32 -43, label %18
  ]

16:                                               ; preds = %11
  %17 = tail call ptr @prte_strerror(i32 noundef %15) #13
  tail call void (i32, ptr, ...) @pmix_output(i32 noundef 0, ptr noundef nonnull @.str.8, ptr noundef %17, ptr noundef nonnull @.str.1, i32 noundef 127) #13
  br label %18

18:                                               ; preds = %11, %16
  tail call void @PMIx_Data_buffer_release(ptr noundef %12) #13
  br label %73

19:                                               ; preds = %11
  %20 = getelementptr inbounds nuw i8, ptr %1, i64 280
  %21 = tail call i32 @PMIx_Data_pack(ptr noundef null, ptr noundef %12, ptr noundef nonnull %20, i32 noundef 1, i16 noundef zeroext 27) #13
  switch i32 %21, label %22 [
    i32 0, label %26
    i32 -2, label %24
  ]

22:                                               ; preds = %19
  %23 = tail call ptr @PMIx_Error_string(i32 noundef %21) #13
  tail call void (i32, ptr, ...) @pmix_output(i32 noundef 0, ptr noundef nonnull @.str.3, ptr noundef %23, ptr noundef nonnull @.str.1, i32 noundef 135) #13
  br label %24

24:                                               ; preds = %19, %22
  tail call void @PMIx_Data_buffer_release(ptr noundef %12) #13
  %25 = tail call i32 @prte_pmix_convert_status(i32 noundef %21) #13
  br label %73

26:                                               ; preds = %19
  %27 = getelementptr inbounds nuw i8, ptr %1, i64 272
  %28 = load ptr, ptr %27, align 8, !tbaa !52
  %29 = tail call i32 @PMIx_Data_copy_payload(ptr noundef %12, ptr noundef %28) #13
  switch i32 %29, label %30 [
    i32 0, label %34
    i32 -2, label %32
  ]

30:                                               ; preds = %26
  %31 = tail call ptr @PMIx_Error_string(i32 noundef %29) #13
  tail call void (i32, ptr, ...) @pmix_output(i32 noundef 0, ptr noundef nonnull @.str.3, ptr noundef %31, ptr noundef nonnull @.str.1, i32 noundef 143) #13
  br label %32

32:                                               ; preds = %26, %30
  tail call void @PMIx_Data_buffer_release(ptr noundef %12) #13
  %33 = tail call i32 @prte_pmix_convert_status(i32 noundef %29) #13
  br label %73

34:                                               ; preds = %26
  %35 = load ptr, ptr %13, align 8, !tbaa !45
  %36 = getelementptr inbounds nuw i8, ptr %35, i64 176
  %37 = load i64, ptr %36, align 8, !tbaa !65
  %.not42 = icmp eq i64 %37, 0
  br i1 %.not42, label %51, label %38

38:                                               ; preds = %34
  %39 = load i32, ptr @prte_rml_base, align 8, !tbaa !21
  %or.cond3 = icmp ult i32 %39, 64
  br i1 %or.cond3, label %40, label %48

40:                                               ; preds = %38
  %41 = zext nneg i32 %39 to i64
  %42 = getelementptr inbounds nuw [0 x %struct.pmix_output_desc_t], ptr @pmix_output_info, i64 0, i64 %41, i32 2
  %43 = load i32, ptr %42, align 4, !tbaa !27
  %44 = icmp sgt i32 %43, 1
  br i1 %44, label %45, label %48

45:                                               ; preds = %40
  %46 = load i32, ptr getelementptr inbounds nuw (i8, ptr @prte_process_info, i64 516), align 4, !tbaa !37
  %47 = tail call ptr @pmix_util_print_rank(i32 noundef %46) #13
  tail call void (i32, ptr, ...) @pmix_output(i32 noundef %39, ptr noundef nonnull @.str.11, ptr noundef %47, i32 noundef 33, ptr noundef nonnull @.str.1, ptr noundef nonnull @__func__.allgather, i32 noundef 151) #13
  br label %48

48:                                               ; preds = %45, %40, %38
  %49 = load i32, ptr getelementptr inbounds nuw (i8, ptr @prte_process_info, i64 516), align 4, !tbaa !37
  %50 = tail call i32 @prte_rml_send_buffer_nb(i32 noundef %49, ptr noundef %12, i32 noundef 33) #13
  br label %73

51:                                               ; preds = %34
  %52 = load i32, ptr getelementptr inbounds nuw (i8, ptr @prte_grpcomm_base_framework, i64 76), align 4, !tbaa !42
  %or.cond5 = icmp ult i32 %52, 64
  br i1 %or.cond5, label %53, label %60

53:                                               ; preds = %51
  %54 = zext nneg i32 %52 to i64
  %55 = getelementptr inbounds nuw [0 x %struct.pmix_output_desc_t], ptr @pmix_output_info, i64 0, i64 %54, i32 2
  %56 = load i32, ptr %55, align 4, !tbaa !27
  %57 = icmp sgt i32 %56, 0
  br i1 %57, label %58, label %60

58:                                               ; preds = %53
  %59 = tail call ptr @prte_util_print_name_args(ptr noundef nonnull @prte_process_info) #13
  tail call void (i32, ptr, ...) @pmix_output(i32 noundef %52, ptr noundef nonnull @.str.27, ptr noundef %59) #13
  br label %60

60:                                               ; preds = %51, %53, %58
  %61 = load i32, ptr @prte_rml_base, align 8, !tbaa !21
  %or.cond7 = icmp ult i32 %61, 64
  br i1 %or.cond7, label %62, label %70

62:                                               ; preds = %60
  %63 = zext nneg i32 %61 to i64
  %64 = getelementptr inbounds nuw [0 x %struct.pmix_output_desc_t], ptr @pmix_output_info, i64 0, i64 %63, i32 2
  %65 = load i32, ptr %64, align 4, !tbaa !27
  %66 = icmp sgt i32 %65, 1
  br i1 %66, label %67, label %70

67:                                               ; preds = %62
  %68 = load i32, ptr getelementptr inbounds nuw (i8, ptr @prte_process_info, i64 256), align 8, !tbaa !67
  %69 = tail call ptr @pmix_util_print_rank(i32 noundef %68) #13
  tail call void (i32, ptr, ...) @pmix_output(i32 noundef %61, ptr noundef nonnull @.str.11, ptr noundef %69, i32 noundef 33, ptr noundef nonnull @.str.1, ptr noundef nonnull @__func__.allgather, i32 noundef 162) #13
  br label %70

70:                                               ; preds = %67, %62, %60
  %71 = load i32, ptr getelementptr inbounds nuw (i8, ptr @prte_process_info, i64 256), align 8, !tbaa !67
  %72 = tail call i32 @prte_rml_send_buffer_nb(i32 noundef %71, ptr noundef %12, i32 noundef 33) #13
  br label %73

73:                                               ; preds = %70, %48, %32, %24, %18
  %.0 = phi i32 [ %15, %18 ], [ %25, %24 ], [ %33, %32 ], [ %50, %48 ], [ %72, %70 ]
  ret i32 %.0
}